target datalayout = "e-m:e-p270:32:32-p271:32:32-p272:64:64-i64:64-i128:128-f80:128-n8:16:32:64-S128"
target triple = "x86_64-pc-linux-gnu"

%struct.quic_info_data = type { i32, i32, ptr, i16, i32, i32, i32, %struct.quic_ciphers, %struct.quic_ciphers, %struct.quic_ciphers, %struct.quic_ciphers, %struct.quic_ciphers, %struct.quic_pp_state, %struct.quic_pp_state, [3 x i64], [3 x i64], ptr, ptr, %struct.quic_cid_item, %struct.quic_cid_item, %struct.quic_cid, ptr, ptr, ptr, ptr, ptr, ptr, ptr, ptr, ptr, ptr }
%struct.quic_ciphers = type { %struct.quic_hp_cipher, %struct.quic_pp_cipher }
%struct.quic_hp_cipher = type { ptr }
%struct.quic_pp_cipher = type { ptr, [12 x i8] }
%struct.quic_pp_state = type { ptr, [2 x %struct.quic_pp_cipher], %struct.quic_hp_cipher, i64, i8 }
%struct.quic_cid_item = type { ptr, %struct.quic_cid }
%struct.quic_cid = type { i8, [20 x i8], [16 x i8], i8, i64, i64 }

@.str.374 = private unnamed_addr constant [29 x i8] c"%s:%u: failed assertion \22%s\22\00", align 1
@.str.375 = private unnamed_addr constant [30 x i8] c"epan/dissectors/packet-quic.c\00", align 1
@.str.378 = private unnamed_addr constant [17 x i8] c"new_cid->len > 0\00", align 1
@quic_server_connections = internal global ptr null, align 8
@quic_client_connections = internal global ptr null, align 8
@quic_cid_lengths = internal global i32 0, align 4

; Function Attrs: null_pointer_is_valid sspstrong uwtable
define internal void @quic_cids_insert(ptr noundef %0, ptr noundef %1, i1 noundef zeroext %2) #0 {
  %4 = alloca ptr, align 8
  %5 = alloca ptr, align 8
  %6 = alloca i8, align 1
  %7 = alloca ptr, align 8
  store ptr %0, ptr %4, align 8
  store ptr %1, ptr %5, align 8
  %8 = zext i1 %2 to i8
  store i8 %8, ptr %6, align 1
  call void @llvm.lifetime.start.p0(i64 8, ptr %7) #19
  %9 = load i8, ptr %6, align 1, !range !6, !noundef !7
  %10 = trunc i8 %9 to i1
  br i1 %10, label %11, label %13

11:                                               ; preds = %3
  %12 = load ptr, ptr @quic_server_connections, align 8
  br label %15

13:                                               ; preds = %3
  %14 = load ptr, ptr @quic_client_connections, align 8
  br label %15

15:                                               ; preds = %13, %11
  %16 = phi ptr [ %12, %11 ], [ %14, %13 ]
  store ptr %16, ptr %7, align 8
  %17 = load ptr, ptr %7, align 8
  %18 = load ptr, ptr %4, align 8
  %19 = call ptr @wmem_map_remove(ptr noundef %17, ptr noundef %18)
  %20 = load ptr, ptr %7, align 8
  %21 = load ptr, ptr %4, align 8
  %22 = load ptr, ptr %5, align 8
  %23 = call ptr @wmem_map_insert(ptr noundef %20, ptr noundef %21, ptr noundef %22)
  %24 = load ptr, ptr %4, align 8
  %25 = getelementptr inbounds nuw %struct.quic_cid, ptr %24, i32 0, i32 0
  %26 = load i8, ptr %25, align 8
  %27 = zext i8 %26 to i32
  %28 = zext i32 %27 to i64
  %29 = shl i64 1, %28
  %30 = load i32, ptr @quic_cid_lengths, align 4
  %31 = zext i32 %30 to i64
  %32 = or i64 %31, %29
  %33 = trunc i64 %32 to i32
  store i32 %33, ptr @quic_cid_lengths, align 4
  call void @llvm.lifetime.end.p0(i64 8, ptr %7) #19
  ret void
}

; Function Attrs: nounwind null_pointer_is_valid sspstrong uwtable
define internal i32 @quic_cids_has_match(ptr noundef %0, ptr noundef %1) #3 {
  %3 = alloca i32, align 4
  %4 = alloca ptr, align 8
  %5 = alloca ptr, align 8
  %6 = alloca ptr, align 8
  %7 = alloca i32, align 4
  store ptr %0, ptr %4, align 8
  store ptr %1, ptr %5, align 8
  br label %8

8:                                                ; preds = %53, %2
  %9 = load ptr, ptr %4, align 8
  %10 = icmp ne ptr %9, null
  br i1 %10, label %11, label %54

11:                                               ; preds = %8
  call void @llvm.lifetime.start.p0(i64 8, ptr %6) #19
  %12 = load ptr, ptr %4, align 8
  %13 = getelementptr inbounds nuw %struct.quic_cid_item, ptr %12, i32 0, i32 1
  store ptr %13, ptr %6, align 8
  %14 = load ptr, ptr %5, align 8
  %15 = getelementptr inbounds nuw %struct.quic_cid, ptr %14, i32 0, i32 0
  %16 = load i8, ptr %15, align 8
  %17 = zext i8 %16 to i32
  %18 = load ptr, ptr %6, align 8
  %19 = getelementptr inbounds nuw %struct.quic_cid, ptr %18, i32 0, i32 0
  %20 = load i8, ptr %19, align 8
  %21 = zext i8 %20 to i32
  %22 = icmp sge i32 %17, %21
  br i1 %22, label %23, label %47

23:                                               ; preds = %11
  %24 = load ptr, ptr %5, align 8
  %25 = getelementptr inbounds nuw %struct.quic_cid, ptr %24, i32 0, i32 1
  %26 = getelementptr inbounds [20 x i8], ptr %25, i64 0, i64 0
  %27 = load ptr, ptr %6, align 8
  %28 = getelementptr inbounds nuw %struct.quic_cid, ptr %27, i32 0, i32 1
  %29 = getelementptr inbounds [20 x i8], ptr %28, i64 0, i64 0
  %30 = load ptr, ptr %6, align 8
  %31 = getelementptr inbounds nuw %struct.quic_cid, ptr %30, i32 0, i32 0
  %32 = load i8, ptr %31, align 8
  %33 = zext i8 %32 to i64
  %34 = call i32 @memcmp(ptr noundef %26, ptr noundef %29, i64 noundef %33) #22
  %35 = icmp ne i32 %34, 0
  br i1 %35, label %47, label %36

36:                                               ; preds = %23
  %37 = load ptr, ptr %6, align 8
  %38 = getelementptr inbounds nuw %struct.quic_cid, ptr %37, i32 0, i32 4
  %39 = load i64, ptr %38, align 8
  %40 = load ptr, ptr %5, align 8
  %41 = getelementptr inbounds nuw %struct.quic_cid, ptr %40, i32 0, i32 4
  store i64 %39, ptr %41, align 8
  %42 = load ptr, ptr %6, align 8
  %43 = getelementptr inbounds nuw %struct.quic_cid, ptr %42, i32 0, i32 5
  %44 = load i64, ptr %43, align 8
  %45 = load ptr, ptr %5, align 8
  %46 = getelementptr inbounds nuw %struct.quic_cid, ptr %45, i32 0, i32 5
  store i64 %44, ptr %46, align 8
  store i32 1, ptr %3, align 4
  store i32 1, ptr %7, align 4
  br label %51

47:                                               ; preds = %23, %11
  %48 = load ptr, ptr %4, align 8
  %49 = getelementptr inbounds nuw %struct.quic_cid_item, ptr %48, i32 0, i32 0
  %50 = load ptr, ptr %49, align 8
  store ptr %50, ptr %4, align 8
  store i32 0, ptr %7, align 4
  br label %51

51:                                               ; preds = %47, %36
  call void @llvm.lifetime.end.p0(i64 8, ptr %6) #19
  %52 = load i32, ptr %7, align 4
  switch i32 %52, label %57 [
    i32 0, label %53
    i32 1, label %55
  ]

53:                                               ; preds = %51
  br label %8, !llvm.loop !15

54:                                               ; preds = %8
  store i32 0, ptr %3, align 4
  br label %55

55:                                               ; preds = %54, %51
  %56 = load i32, ptr %3, align 4
  ret i32 %56

57:                                               ; preds = %51
  unreachable
}

; Function Attrs: null_pointer_is_valid sspstrong uwtable
define internal void @quic_connection_add_cid(ptr noundef %0, ptr noundef %1, i1 noundef zeroext %2) #0 {
  %4 = alloca ptr, align 8
  %5 = alloca ptr, align 8
  %6 = alloca i8, align 1
  %7 = alloca ptr, align 8
  %8 = alloca i32, align 4
  %9 = alloca ptr, align 8
  store ptr %0, ptr %4, align 8
  store ptr %1, ptr %5, align 8
  %10 = zext i1 %2 to i8
  store i8 %10, ptr %6, align 1
  %11 = load ptr, ptr %5, align 8
  %12 = getelementptr inbounds nuw %struct.quic_cid, ptr %11, i32 0, i32 0
  %13 = load i8, ptr %12, align 8
  %14 = zext i8 %13 to i32
  %15 = icmp sgt i32 %14, 0
  br i1 %15, label %16, label %17

16:                                               ; preds = %3
  br label %19

17:                                               ; preds = %3
  call void (ptr, ...) @proto_report_dissector_bug(ptr noundef @.str.374, ptr noundef @.str.375, i32 noundef 1383, ptr noundef @.str.378) #20
  unreachable

18:                                               ; No predecessors!
  br label %19

19:                                               ; preds = %18, %16
  call void @llvm.lifetime.start.p0(i64 8, ptr %7) #19
  %20 = load i8, ptr %6, align 1, !range !6, !noundef !7
  %21 = trunc i8 %20 to i1
  br i1 %21, label %22, label %25

22:                                               ; preds = %19
  %23 = load ptr, ptr %4, align 8
  %24 = getelementptr inbounds nuw %struct.quic_info_data, ptr %23, i32 0, i32 19
  br label %28

25:                                               ; preds = %19
  %26 = load ptr, ptr %4, align 8
  %27 = getelementptr inbounds nuw %struct.quic_info_data, ptr %26, i32 0, i32 18
  br label %28

28:                                               ; preds = %25, %22
  %29 = phi ptr [ %24, %22 ], [ %27, %25 ]
  store ptr %29, ptr %7, align 8
  %30 = load ptr, ptr %7, align 8
  %31 = load ptr, ptr %5, align 8
  %32 = call i32 @quic_cids_has_match(ptr noundef %30, ptr noundef %31)
  %33 = icmp ne i32 %32, 0
  br i1 %33, label %34, label %35

34:                                               ; preds = %28
  store i32 1, ptr %8, align 4
  br label %54

35:                                               ; preds = %28
  call void @llvm.lifetime.start.p0(i64 8, ptr %9) #19
  %36 = call ptr @wmem_file_scope()
  %37 = call noalias ptr @wmem_alloc0(ptr noundef %36, i64 noundef 64) #21
  store ptr %37, ptr %9, align 8
  %38 = load ptr, ptr %9, align 8
  %39 = getelementptr inbounds nuw %struct.quic_cid_item, ptr %38, i32 0, i32 1
  %40 = load ptr, ptr %5, align 8
  call void @llvm.memcpy.p0.p0.i64(ptr align 8 %39, ptr align 8 %40, i64 56, i1 false)
  %41 = load ptr, ptr %7, align 8
  %42 = getelementptr inbounds nuw %struct.quic_cid_item, ptr %41, i32 0, i32 0
  %43 = load ptr, ptr %42, align 8
  %44 = load ptr, ptr %9, align 8
  %45 = getelementptr inbounds nuw %struct.quic_cid_item, ptr %44, i32 0, i32 0
  store ptr %43, ptr %45, align 8
  %46 = load ptr, ptr %9, align 8
  %47 = load ptr, ptr %7, align 8
  %48 = getelementptr inbounds nuw %struct.quic_cid_item, ptr %47, i32 0, i32 0
  store ptr %46, ptr %48, align 8
  %49 = load ptr, ptr %9, align 8
  %50 = getelementptr inbounds nuw %struct.quic_cid_item, ptr %49, i32 0, i32 1
  %51 = load ptr, ptr %4, align 8
  %52 = load i8, ptr %6, align 1, !range !6, !noundef !7
  %53 = trunc i8 %52 to i1
  call void @quic_cids_insert(ptr noundef %50, ptr noundef %51, i1 noundef zeroext %53)
  call void @llvm.lifetime.end.p0(i64 8, ptr %9) #19
  store i32 0, ptr %8, align 4
  br label %54

54:                                               ; preds = %35, %34
  call void @llvm.lifetime.end.p0(i64 8, ptr %7) #19
  %55 = load i32, ptr %8, align 4
  switch i32 %55, label %57 [
    i32 0, label %56
    i32 1, label %56
  ]

56:                                               ; preds = %54, %54
  ret void

57:                                               ; preds = %54
  unreachable
}