; Function Attrs: null_pointer_is_valid sspstrong uwtable
define internal fastcc void @quic_connection_add_cid(ptr noundef nonnull %0, ptr noundef captures(none) %1, i1 noundef zeroext %2) unnamed_addr #0 {
  %4 = load i8, ptr %1, align 8
  %.not = icmp eq i8 %4, 0
  br i1 %.not, label %5, label %6

5:                                                ; preds = %3
  tail call void (ptr, ...) @proto_report_dissector_bug(ptr noundef nonnull @.str.374, ptr noundef nonnull @.str.375, i32 noundef 1383, ptr noundef nonnull @.str.378) #16
  unreachable

6:                                                ; preds = %3
  %.v = select i1 %2, i64 480, i64 416
  %7 = getelementptr inbounds nuw i8, ptr %0, i64 %.v
  %8 = getelementptr inbounds nuw i8, ptr %1, i64 1
  br label %9

9:                                                ; preds = %15, %6
  %.01422.i = phi ptr [ %7, %6 ], [ %16, %15 ]
  %10 = getelementptr inbounds nuw i8, ptr %.01422.i, i64 8
  %11 = load i8, ptr %10, align 8
  %.not16.i = icmp ult i8 %4, %11
  br i1 %.not16.i, label %15, label %12

12:                                               ; preds = %9
  %13 = getelementptr inbounds nuw i8, ptr %.01422.i, i64 9
  %14 = zext i8 %11 to i64
  %bcmp.i = tail call i32 @bcmp(ptr nonnull %8, ptr nonnull %13, i64 %14)
  %.not17.i = icmp eq i32 %bcmp.i, 0
  br i1 %.not17.i, label %quic_cids_has_match.exit, label %15

15:                                               ; preds = %12, %9
  %16 = load ptr, ptr %.01422.i, align 8
  %.not.i = icmp eq ptr %16, null
  br i1 %.not.i, label %23, label %9

quic_cids_has_match.exit:                         ; preds = %12
  %17 = getelementptr inbounds nuw i8, ptr %.01422.i, i64 48
  %18 = load i64, ptr %17, align 8
  %19 = getelementptr inbounds nuw i8, ptr %1, i64 40
  store i64 %18, ptr %19, align 8
  %20 = getelementptr inbounds nuw i8, ptr %.01422.i, i64 56
  %21 = load i64, ptr %20, align 8
  %22 = getelementptr inbounds nuw i8, ptr %1, i64 48
  store i64 %21, ptr %22, align 8
  br label %39

23:                                               ; preds = %15
  %24 = tail call ptr @wmem_file_scope()
  %25 = tail call noalias dereferenceable_or_null(64) ptr @wmem_alloc0(ptr noundef %24, i64 noundef 64) #17
  %26 = getelementptr inbounds nuw i8, ptr %25, i64 8
  tail call void @llvm.memcpy.p0.p0.i64(ptr noundef nonnull align 8 dereferenceable(56) %26, ptr noundef align 8 dereferenceable(56) %1, i64 56, i1 false)
  %27 = load ptr, ptr %7, align 8
  store ptr %27, ptr %25, align 8
  store ptr %25, ptr %7, align 8
  %28 = load ptr, ptr @quic_server_connections, align 8
  %29 = load ptr, ptr @quic_client_connections, align 8
  %30 = select i1 %2, ptr %28, ptr %29
  %31 = tail call ptr @wmem_map_remove(ptr noundef %30, ptr noundef nonnull %26)
  %32 = tail call ptr @wmem_map_insert(ptr noundef %30, ptr noundef nonnull %26, ptr noundef nonnull %0)
  %33 = load i8, ptr %26, align 8
  %34 = zext nneg i8 %33 to i64
  %35 = shl nuw i64 1, %34
  %36 = load i32, ptr @quic_cid_lengths, align 4
  %37 = trunc i64 %35 to i32
  %38 = or i32 %36, %37
  store i32 %38, ptr @quic_cid_lengths, align 4
  br label %39

39:                                               ; preds = %quic_cids_has_match.exit, %23
  ret void
}